(dp0
S'448D'
p1
cnumpy.core.multiarray
_reconstruct
p2
(cnumpy
ndarray
p3
(I0
tp4
S'b'
p5
tp6
Rp7
(I1
(I4
tp8
cnumpy
dtype
p9
(S'f4'
p10
I0
I1
tp11
Rp12
(I3
S'<'
p13
NNNI-1
I-1
I0
tp14
bI00
S'\t\xc7K7=7\x7f?\x8e\x81o8\x8f8D;'
p15
tp16
bsS'53B'
p17
g2
(g3
(I0
tp18
g5
tp19
Rp20
(I1
(I4
tp21
g9
(S'f4'
p22
I0
I1
tp23
Rp24
(I3
S'<'
p25
NNNI-1
I-1
I0
tp26
bI00
S'cZr;\x8e\x0fO?\xccM\x84;\xf1\xd5;>'
p27
tp28
bsS'176B'
p29
g2
(g3
(I0
tp30
g5
tp31
Rp32
(I1
(I4
tp33
g9
(S'f4'
p34
I0
I1
tp35
Rp36
(I3
S'<'
p37
NNNI-1
I-1
I0
tp38
bI00
S'\x0bS\x8e<R-\x8c>\xc5p:<\xfb\x8c2?'
p39
tp40
bsS'180D'
p41
g2
(g3
(I0
tp42
g5
tp43
Rp44
(I1
(I4
tp45
g9
(S'f4'
p46
I0
I1
tp47
Rp48
(I3
S'<'
p49
NNNI-1
I-1
I0
tp50
bI00
S'sa\x88>\xf8\tx<\xf7&\xd8=>\xea\x1c?'
p51
tp52
bsS'337C'
p53
g2
(g3
(I0
tp54
g5
tp55
Rp56
(I1
(I4
tp57
g9
(S'f4'
p58
I0
I1
tp59
Rp60
(I3
S'<'
p61
NNNI-1
I-1
I0
tp62
bI00
S'\x85Bx8\xb0\\|?\x12\xfe\x9d98\xecb<'
p63
tp64
bsS'301D'
p65
g2
(g3
(I0
tp66
g5
tp67
Rp68
(I1
(I4
tp69
g9
(S'f4'
p70
I0
I1
tp71
Rp72
(I3
S'<'
p73
NNNI-1
I-1
I0
tp74
bI00
S'Cr=?\x97\xf2\x8e9ZJ4>=J\xab='
p75
tp76
bsS'553C'
p77
g2
(g3
(I0
tp78
g5
tp79
Rp80
(I1
(I4
tp81
g9
(S'f4'
p82
I0
I1
tp83
Rp84
(I3
S'<'
p85
NNNI-1
I-1
I0
tp86
bI00
S'r\xb5\x19>\xecjK=\x93\x8d~>\x8f8\r?'
p87
tp88
bsS'95B'
p89
g2
(g3
(I0
tp90
g5
tp91
Rp92
(I1
(I4
tp93
g9
(S'f4'
p94
I0
I1
tp95
Rp96
(I3
S'<'
p97
NNNI-1
I-1
I0
tp98
bI00
S'\x11\xa6\x1c>\xbbd{>\x86j\x8e>\x12\x90\xa5>'
p99
tp100
bsS'340D'
p101
g2
(g3
(I0
tp102
g5
tp103
Rp104
(I1
(I4
tp105
g9
(S'f4'
p106
I0
I1
tp107
Rp108
(I3
S'<'
p109
NNNI-1
I-1
I0
tp110
bI00
S'o\xfd\x1c:\x84Z5?c\x89\x979\x9c\xd6\x94>'
p111
tp112
bsS'479E'
p113
g2
(g3
(I0
tp114
g5
tp115
Rp116
(I1
(I4
tp117
g9
(S'f4'
p118
I0
I1
tp119
Rp120
(I3
S'<'
p121
NNNI-1
I-1
I0
tp122
bI00
S")\xd5\x9b<\x942\xca<'\xc8\xd3;1(s?"
p123
tp124
bsS'191C'
p125
g2
(g3
(I0
tp126
g5
tp127
Rp128
(I1
(I4
tp129
g9
(S'f4'
p130
I0
I1
tp131
Rp132
(I3
S'<'
p133
NNNI-1
I-1
I0
tp134
bI00
S'5\x0b\xd5=\xf0z\xbb8\xf5\x7fa?H2v<'
p135
tp136
bsS'291E'
p137
g2
(g3
(I0
tp138
g5
tp139
Rp140
(I1
(I4
tp141
g9
(S'f4'
p142
I0
I1
tp143
Rp144
(I3
S'<'
p145
NNNI-1
I-1
I0
tp146
bI00
S'\xcc\x8a\x17>\xe6\xef\x11;\x10\x10\xee>\xab\x06\xc5>'
p147
tp148
bsS'121E'
p149
g2
(g3
(I0
tp150
g5
tp151
Rp152
(I1
(I4
tp153
g9
(S'f4'
p154
I0
I1
tp155
Rp156
(I3
S'<'
p157
NNNI-1
I-1
I0
tp158
bI00
S'W\x00e?\xceZk;\xf1\xc0\xf2;\\v\xc1='
p159
tp160
bsS'348A'
p161
g2
(g3
(I0
tp162
g5
tp163
Rp164
(I1
(I4
tp165
g9
(S'f4'
p166
I0
I1
tp167
Rp168
(I3
S'<'
p169
NNNI-1
I-1
I0
tp170
bI00
S'\x11m\x9d9\xd7\x98??\xa1\x9d\xda9Rp\x80>'
p171
tp172
bsS'56D'
p173
g2
(g3
(I0
tp174
g5
tp175
Rp176
(I1
(I4
tp177
g9
(S'f4'
p178
I0
I1
tp179
Rp180
(I3
S'<'
p181
NNNI-1
I-1
I0
tp182
bI00
S'\x19\x9c\x8d=\x0e:1:\xe5\xff\x9e>=\xa0\x1e?'
p183
tp184
bsS'276E'
p185
g2
(g3
(I0
tp186
g5
tp187
Rp188
(I1
(I4
tp189
g9
(S'f4'
p190
I0
I1
tp191
Rp192
(I3
S'<'
p193
NNNI-1
I-1
I0
tp194
bI00
S'\xef\x0f\x1f?\xa4\t\xd87\x89A\xbc>lg3<'
p195
tp196
bsS'61E'
p197
g2
(g3
(I0
tp198
g5
tp199
Rp200
(I1
(I4
tp201
g9
(S'f4'
p202
I0
I1
tp203
Rp204
(I3
S'<'
p205
NNNI-1
I-1
I0
tp206
bI00
S"\xad\xd3\x0e?\xd7<'<'\x9d\x84=u\xf7\xbb>"
p207
tp208
bsS'592D'
p209
g2
(g3
(I0
tp210
g5
tp211
Rp212
(I1
(I4
tp213
g9
(S'f4'
p214
I0
I1
tp215
Rp216
(I3
S'<'
p217
NNNI-1
I-1
I0
tp218
bI00
S'\xee\xeb\x1b>\xfa\xf8\xfe;l\xda+?\x9c\xb2,>'
p219
tp220
bsS'659F'
p221
g2
(g3
(I0
tp222
g5
tp223
Rp224
(I1
(I4
tp225
g9
(S'f4'
p226
I0
I1
tp227
Rp228
(I3
S'<'
p229
NNNI-1
I-1
I0
tp230
bI00
S'\x94\xf7\xf6<\xdb\xd187\xf2*s?%\x93\xa3<'
p231
tp232
bsS'52C'
p233
g2
(g3
(I0
tp234
g5
tp235
Rp236
(I1
(I4
tp237
g9
(S'f4'
p238
I0
I1
tp239
Rp240
(I3
S'<'
p241
NNNI-1
I-1
I0
tp242
bI00
S'\x18\xb08?=\x89u;\x88\xe7\x85>\xa6\xa6Y<'
p243
tp244
bsS'test'
p245
(lp246
F0.0
aF0.0
aF0.0
aF0.0
asS'732F'
p247
g2
(g3
(I0
tp248
g5
tp249
Rp250
(I1
(I4
tp251
g9
(S'f4'
p252
I0
I1
tp253
Rp254
(I3
S'<'
p255
NNNI-1
I-1
I0
tp256
bI00
S'\x13\xf4\xa6=\x06"\x8d8lFg?\x13\xaau<'
p257
tp258
bsS'234F'
p259
g2
(g3
(I0
tp260
g5
tp261
Rp262
(I1
(I4
tp263
g9
(S'f4'
p264
I0
I1
tp265
Rp266
(I3
S'<'
p267
NNNI-1
I-1
I0
tp268
bI00
S')O\xae=^\xa9\xea:\xb6TW>\x98\xeb3?'
p269
tp270
bsS'220E'
p271
g2
(g3
(I0
tp272
g5
tp273
Rp274
(I1
(I4
tp275
g9
(S'f4'
p276
I0
I1
tp277
Rp278
(I3
S'<'
p279
NNNI-1
I-1
I0
tp280
bI00
S'\x14&D?I\x13\x949(\xd72>$\x1aq='
p281
tp282
bsS'183D'
p283
g2
(g3
(I0
tp284
g5
tp285
Rp286
(I1
(I4
tp287
g9
(S'f4'
p288
I0
I1
tp289
Rp290
(I3
S'<'
p291
NNNI-1
I-1
I0
tp292
bI00
S'd\x1e\xa6;\xcf\xdf\x927\xbasN=d\xcbq?'
p293
tp294
bsS'527C'
p295
g2
(g3
(I0
tp296
g5
tp297
Rp298
(I1
(I4
tp299
g9
(S'f4'
p300
I0
I1
tp301
Rp302
(I3
S'<'
p303
NNNI-1
I-1
I0
tp304
bI00
S"\xbbTT=\x9c\xe9\x0b?\xf0\xd6\x03=R'\xbd>"
p305
tp306
bsS'556E'
p307
g2
(g3
(I0
tp308
g5
tp309
Rp310
(I1
(I4
tp311
g9
(S'f4'
p312
I0
I1
tp313
Rp314
(I3
S'<'
p315
NNNI-1
I-1
I0
tp316
bI00
S'\xe1@+=A\xec\x0c?~\x0e\xca=\xbe;\x9e>'
p317
tp318
bsS'173B'
p319
g2
(g3
(I0
tp320
g5
tp321
Rp322
(I1
(I4
tp323
g9
(S'f4'
p324
I0
I1
tp325
Rp326
(I3
S'<'
p327
NNNI-1
I-1
I0
tp328
bI00
S'\xff<\x9c=1\xca\xb0<\x1fK\x11=^\xdd]?'
p329
tp330
bsS'369E'
p331
g2
(g3
(I0
tp332
g5
tp333
Rp334
(I1
(I4
tp335
g9
(S'f4'
p336
I0
I1
tp337
Rp338
(I3
S'<'
p339
NNNI-1
I-1
I0
tp340
bI00
S'7k\x1d?\xe3\xf6\xeb:.\xbc1>\x04\xbfV>'
p341
tp342
bsS'196B'
p343
g2
(g3
(I0
tp344
g5
tp345
Rp346
(I1
(I4
tp347
g9
(S'f4'
p348
I0
I1
tp349
Rp350
(I3
S'<'
p351
NNNI-1
I-1
I0
tp352
bI00
S'\xbfH^>\x15\xda\x89<\xda#\xd9>#\x1a\xaf>'
p353
tp354
bsS'453C'
p355
g2
(g3
(I0
tp356
g5
tp357
Rp358
(I1
(I4
tp359
g9
(S'f4'
p360
I0
I1
tp361
Rp362
(I3
S'<'
p363
NNNI-1
I-1
I0
tp364
bI00
S'w\xd3\x11>#\x84\x19;\x06\xef=?\xc1\x14\xe8='
p365
tp366
bsS'327D'
p367
g2
(g3
(I0
tp368
g5
tp369
Rp370
(I1
(I4
tp371
g9
(S'f4'
p372
I0
I1
tp373
Rp374
(I3
S'<'
p375
NNNI-1
I-1
I0
tp376
bI00
S'c\xf70>U\x0f2;J\xf4\x02?\x9e7\xa0>'
p377
tp378
bsS'549H'
p379
g2
(g3
(I0
tp380
g5
tp381
Rp382
(I1
(I4
tp383
g9
(S'f4'
p384
I0
I1
tp385
Rp386
(I3
S'<'
p387
NNNI-1
I-1
I0
tp388
bI00
S'c\xc3\xe09h0j?\xc33r=\x9f\x08\xd2<'
p389
tp390
bsS'373B'
p391
g2
(g3
(I0
tp392
g5
tp393
Rp394
(I1
(I4
tp395
g9
(S'f4'
p396
I0
I1
tp397
Rp398
(I3
S'<'
p399
NNNI-1
I-1
I0
tp400
bI00
S'\xc1\x11\xa99\xb2:p?u\xae\x899f\xefy='
p401
tp402
bsS'382D'
p403
g2
(g3
(I0
tp404
g5
tp405
Rp406
(I1
(I4
tp407
g9
(S'f4'
p408
I0
I1
tp409
Rp410
(I3
S'<'
p411
NNNI-1
I-1
I0
tp412
bI00
S'K\xa9+>\x1c~2;Y5(?a\xb70>'
p413
tp414
bsS'501D'
p415
g2
(g3
(I0
tp416
g5
tp417
Rp418
(I1
(I4
tp419
g9
(S'f4'
p420
I0
I1
tp421
Rp422
(I3
S'<'
p423
NNNI-1
I-1
I0
tp424
bI00
S'\x86\x83\x1d?#\x96^<&\x8d\xb1=\xfe\xa0\x91>'
p425
tp426
bsS'371C'
p427
g2
(g3
(I0
tp428
g5
tp429
Rp430
(I1
(I4
tp431
g9
(S'f4'
p432
I0
I1
tp433
Rp434
(I3
S'<'
p435
NNNI-1
I-1
I0
tp436
bI00
S'V\xa1\x85<.\xc18?U\x8c\x9c=\xe7\x00>>'
p437
tp438
bsS'19E'
p439
g2
(g3
(I0
tp440
g5
tp441
Rp442
(I1
(I4
tp443
g9
(S'f4'
p444
I0
I1
tp445
Rp446
(I3
S'<'
p447
NNNI-1
I-1
I0
tp448
bI00
S':\x1e\xd1<;\xa1@6\x84(x?\xce,\xa7;'
p449
tp450
bsS'19D'
p451
g2
(g3
(I0
tp452
g5
tp453
Rp454
(I1
(I4
tp455
g9
(S'f4'
p456
I0
I1
tp457
Rp458
(I3
S'<'
p459
NNNI-1
I-1
I0
tp460
bI00
S'\xa1\xf6\n?}\xaa\xf79H_\xb6>#\xd6\xcd='
p461
tp462
bsS'700C'
p463
g2
(g3
(I0
tp464
g5
tp465
Rp466
(I1
(I4
tp467
g9
(S'f4'
p468
I0
I1
tp469
Rp470
(I3
S'<'
p471
NNNI-1
I-1
I0
tp472
bI00
S'\x01\xc7\x93=K4\xce5lrl?~L\x8a;'
p473
tp474
bsS'610D'
p475
g2
(g3
(I0
tp476
g5
tp477
Rp478
(I1
(I4
tp479
g9
(S'f4'
p480
I0
I1
tp481
Rp482
(I3
S'<'
p483
NNNI-1
I-1
I0
tp484
bI00
S'\xc8\x93\xf6>n\xacD;4\x9d\xf7>V-\x02='
p485
tp486
bs.